; Function Attrs: nounwind uwtable
define ptr @l_Array_foldlMUnsafe_fold___at_Lean_Elab_expandDeclId___spec__1___rarg___lambda__2___boxed(ptr noundef %0, ptr noundef %1, ptr noundef %2, ptr noundef %3) #0 {
  %5 = tail call ptr @l_Lean_replaceRef(ptr noundef %0, ptr noundef %3) #7
  %6 = getelementptr inbounds nuw i8, ptr %1, i64 16
  %7 = load ptr, ptr %6, align 8, !tbaa !9
  %8 = ptrtoint ptr %7 to i64
  %9 = and i64 %8, 1
  %.not.i10 = icmp eq i64 %9, 0
  br i1 %.not.i10, label %10, label %lean_inc.exit.i

10:                                               ; preds = %4
  %.val.i.i = load i32, ptr %7, align 4, !tbaa !4
  %11 = icmp sgt i32 %.val.i.i, 0
  br i1 %11, label %12, label %14, !prof !13

12:                                               ; preds = %10
  %13 = add nuw i32 %.val.i.i, 1
  store i32 %13, ptr %7, align 4, !tbaa !4
  br label %lean_inc.exit.i

14:                                               ; preds = %10
  %.not.i9.i = icmp eq i32 %.val.i.i, 0
  br i1 %.not.i9.i, label %lean_inc.exit.i, label %15

15:                                               ; preds = %14
  tail call void @lean_inc_ref_cold(ptr noundef nonnull %7) #7
  br label %lean_inc.exit.i

lean_inc.exit.i:                                  ; preds = %15, %14, %12, %4
  %16 = ptrtoint ptr %1 to i64
  %17 = and i64 %16, 1
  %.not10.i = icmp eq i64 %17, 0
  br i1 %.not10.i, label %18, label %l_Array_foldlMUnsafe_fold___at_Lean_Elab_expandDeclId___spec__1___rarg___lambda__2.exit

18:                                               ; preds = %lean_inc.exit.i
  %19 = load i32, ptr %1, align 4, !tbaa !4
  %20 = icmp sgt i32 %19, 1
  br i1 %20, label %21, label %23, !prof !13

21:                                               ; preds = %18
  %22 = add nsw i32 %19, -1
  store i32 %22, ptr %1, align 4, !tbaa !4
  br label %l_Array_foldlMUnsafe_fold___at_Lean_Elab_expandDeclId___spec__1___rarg___lambda__2.exit

23:                                               ; preds = %18
  %.not.i.i = icmp eq i32 %19, 0
  br i1 %.not.i.i, label %l_Array_foldlMUnsafe_fold___at_Lean_Elab_expandDeclId___spec__1___rarg___lambda__2.exit, label %24

24:                                               ; preds = %23
  tail call void @lean_dec_ref_cold(ptr noundef nonnull %1) #7
  br label %l_Array_foldlMUnsafe_fold___at_Lean_Elab_expandDeclId___spec__1___rarg___lambda__2.exit

l_Array_foldlMUnsafe_fold___at_Lean_Elab_expandDeclId___spec__1___rarg___lambda__2.exit: ; preds = %lean_inc.exit.i, %21, %23, %24
  %25 = tail call ptr @lean_apply_3(ptr noundef %7, ptr noundef nonnull inttoptr (i64 1 to ptr), ptr noundef %5, ptr noundef %2) #7
  %26 = ptrtoint ptr %3 to i64
  %27 = and i64 %26, 1
  %.not = icmp eq i64 %27, 0
  br i1 %.not, label %28, label %lean_dec.exit7

28:                                               ; preds = %l_Array_foldlMUnsafe_fold___at_Lean_Elab_expandDeclId___spec__1___rarg___lambda__2.exit
  %29 = load i32, ptr %3, align 4, !tbaa !4
  %30 = icmp sgt i32 %29, 1
  br i1 %30, label %31, label %33, !prof !13

31:                                               ; preds = %28
  %32 = add nsw i32 %29, -1
  store i32 %32, ptr %3, align 4, !tbaa !4
  br label %lean_dec.exit7

33:                                               ; preds = %28
  %.not.i = icmp eq i32 %29, 0
  br i1 %.not.i, label %lean_dec.exit7, label %34

34:                                               ; preds = %33
  tail call void @lean_dec_ref_cold(ptr noundef nonnull %3) #7
  br label %lean_dec.exit7

lean_dec.exit7:                                   ; preds = %34, %33, %31, %l_Array_foldlMUnsafe_fold___at_Lean_Elab_expandDeclId___spec__1___rarg___lambda__2.exit
  %35 = ptrtoint ptr %0 to i64
  %36 = and i64 %35, 1
  %.not11 = icmp eq i64 %36, 0
  br i1 %.not11, label %37, label %lean_dec.exit

37:                                               ; preds = %lean_dec.exit7
  %38 = load i32, ptr %0, align 4, !tbaa !4
  %39 = icmp sgt i32 %38, 1
  br i1 %39, label %40, label %42, !prof !13

40:                                               ; preds = %37
  %41 = add nsw i32 %38, -1
  store i32 %41, ptr %0, align 4, !tbaa !4
  br label %lean_dec.exit

42:                                               ; preds = %37
  %.not.i8 = icmp eq i32 %38, 0
  br i1 %.not.i8, label %lean_dec.exit, label %43

43:                                               ; preds = %42
  tail call void @lean_dec_ref_cold(ptr noundef nonnull %0) #7
  br label %lean_dec.exit

lean_dec.exit:                                    ; preds = %43, %42, %40, %lean_dec.exit7
  ret ptr %25
}